target datalayout = "e-m:e-p270:32:32-p271:32:32-p272:64:64-i64:64-i128:128-f80:128-n8:16:32:64-S128"
target triple = "x86_64-pc-linux-gnu"

%struct.__loadu_si128 = type { <2 x i64> }

@kSLog2Table = external constant [256 x i64], align 16
@VP8LFastSLog2Slow = external global ptr, align 8

; Function Attrs: inlinehint nounwind uwtable
define internal i64 @VP8LFastSLog2(i32 noundef %0) #6 {
  %2 = alloca i32, align 4
  store i32 %0, ptr %2, align 4, !tbaa !9
  %3 = load i32, ptr %2, align 4, !tbaa !9
  %4 = icmp ult i32 %3, 256
  br i1 %4, label %5, label %10

5:                                                ; preds = %1
  %6 = load i32, ptr %2, align 4, !tbaa !9
  %7 = zext i32 %6 to i64
  %8 = getelementptr inbounds nuw [256 x i64], ptr @kSLog2Table, i64 0, i64 %7
  %9 = load i64, ptr %8, align 8, !tbaa !29
  br label %14

10:                                               ; preds = %1
  %11 = load ptr, ptr @VP8LFastSLog2Slow, align 8, !tbaa !3
  %12 = load i32, ptr %2, align 4, !tbaa !9
  %13 = call i64 %11(i32 noundef %12)
  br label %14

14:                                               ; preds = %10, %5
  %15 = phi i64 [ %9, %5 ], [ %13, %10 ]
  ret i64 %15
}

; Function Attrs: inlinehint nounwind uwtable
define internal i32 @BitsCtz(i32 noundef %0) #6 {
  %2 = alloca i32, align 4
  store i32 %0, ptr %2, align 4, !tbaa !9
  %3 = load i32, ptr %2, align 4, !tbaa !9
  %4 = call i32 @llvm.cttz.i32(i32 %3, i1 true)
  ret i32 %4
}

; Function Attrs: alwaysinline nounwind uwtable
define internal i32 @_mm_movemask_epi8(<2 x i64> noundef %0) #3 {
  %2 = alloca <2 x i64>, align 16
  store <2 x i64> %0, ptr %2, align 16, !tbaa !11
  %3 = load <2 x i64>, ptr %2, align 16, !tbaa !11
  %4 = bitcast <2 x i64> %3 to <16 x i8>
  %5 = call i32 @llvm.x86.sse2.pmovmskb.128(<16 x i8> %4)
  ret i32 %5
}

; Function Attrs: alwaysinline nounwind uwtable
define internal <2 x i64> @_mm_cmpgt_epi8(<2 x i64> noundef %0, <2 x i64> noundef %1) #3 {
  %3 = alloca <2 x i64>, align 16
  %4 = alloca <2 x i64>, align 16
  store <2 x i64> %0, ptr %3, align 16, !tbaa !11
  store <2 x i64> %1, ptr %4, align 16, !tbaa !11
  %5 = load <2 x i64>, ptr %3, align 16, !tbaa !11
  %6 = bitcast <2 x i64> %5 to <16 x i8>
  %7 = load <2 x i64>, ptr %4, align 16, !tbaa !11
  %8 = bitcast <2 x i64> %7 to <16 x i8>
  %9 = icmp sgt <16 x i8> %6, %8
  %10 = sext <16 x i1> %9 to <16 x i8>
  %11 = bitcast <16 x i8> %10 to <2 x i64>
  ret <2 x i64> %11
}

; Function Attrs: alwaysinline nounwind uwtable
define internal <2 x i64> @_mm_packs_epi16(<2 x i64> noundef %0, <2 x i64> noundef %1) #3 {
  %3 = alloca <2 x i64>, align 16
  %4 = alloca <2 x i64>, align 16
  store <2 x i64> %0, ptr %3, align 16, !tbaa !11
  store <2 x i64> %1, ptr %4, align 16, !tbaa !11
  %5 = load <2 x i64>, ptr %3, align 16, !tbaa !11
  %6 = bitcast <2 x i64> %5 to <8 x i16>
  %7 = load <2 x i64>, ptr %4, align 16, !tbaa !11
  %8 = bitcast <2 x i64> %7 to <8 x i16>
  %9 = call <16 x i8> @llvm.x86.sse2.packsswb.128(<8 x i16> %6, <8 x i16> %8)
  %10 = bitcast <16 x i8> %9 to <2 x i64>
  ret <2 x i64> %10
}

; Function Attrs: alwaysinline nounwind uwtable
define internal <2 x i64> @_mm_packs_epi32(<2 x i64> noundef %0, <2 x i64> noundef %1) #3 {
  %3 = alloca <2 x i64>, align 16
  %4 = alloca <2 x i64>, align 16
  store <2 x i64> %0, ptr %3, align 16, !tbaa !11
  store <2 x i64> %1, ptr %4, align 16, !tbaa !11
  %5 = load <2 x i64>, ptr %3, align 16, !tbaa !11
  %6 = bitcast <2 x i64> %5 to <4 x i32>
  %7 = load <2 x i64>, ptr %4, align 16, !tbaa !11
  %8 = bitcast <2 x i64> %7 to <4 x i32>
  %9 = call <8 x i16> @llvm.x86.sse2.packssdw.128(<4 x i32> %6, <4 x i32> %8)
  %10 = bitcast <8 x i16> %9 to <2 x i64>
  ret <2 x i64> %10
}

; Function Attrs: alwaysinline nounwind uwtable
define internal <2 x i64> @_mm_loadu_si128(ptr noundef %0) #3 {
  %2 = alloca ptr, align 8
  store ptr %0, ptr %2, align 8, !tbaa !3
  %3 = load ptr, ptr %2, align 8, !tbaa !3
  %4 = getelementptr inbounds nuw %struct.__loadu_si128, ptr %3, i32 0, i32 0
  %5 = load <2 x i64>, ptr %4, align 1, !tbaa !11
  ret <2 x i64> %5
}

; Function Attrs: alwaysinline nounwind uwtable
define internal <2 x i64> @_mm_setzero_si128() #3 {
  %1 = alloca <2 x i64>, align 16
  store <2 x i64> zeroinitializer, ptr %1, align 16, !tbaa !11
  %2 = load <2 x i64>, ptr %1, align 16, !tbaa !11
  ret <2 x i64> %2
}

; Function Attrs: nounwind uwtable
define internal i64 @CombinedShannonEntropy_SSE2(ptr noundef %0, ptr noundef %1) #1 {
  %3 = alloca ptr, align 8
  %4 = alloca ptr, align 8
  %5 = alloca i32, align 4
  %6 = alloca i64, align 8
  %7 = alloca i32, align 4
  %8 = alloca i32, align 4
  %9 = alloca <2 x i64>, align 16
  %10 = alloca <2 x i64>, align 16
  %11 = alloca <2 x i64>, align 16
  %12 = alloca <2 x i64>, align 16
  %13 = alloca <2 x i64>, align 16
  %14 = alloca <2 x i64>, align 16
  %15 = alloca <2 x i64>, align 16
  %16 = alloca <2 x i64>, align 16
  %17 = alloca <2 x i64>, align 16
  %18 = alloca <2 x i64>, align 16
  %19 = alloca <2 x i64>, align 16
  %20 = alloca i32, align 4
  %21 = alloca i32, align 4
  %22 = alloca i32, align 4
  %23 = alloca i32, align 4
  %24 = alloca i32, align 4
  store ptr %0, ptr %3, align 8, !tbaa !7
  store ptr %1, ptr %4, align 8, !tbaa !7
  call void @llvm.lifetime.start.p0(i64 4, ptr %5) #9
  call void @llvm.lifetime.start.p0(i64 8, ptr %6) #9
  store i64 0, ptr %6, align 8, !tbaa !29
  call void @llvm.lifetime.start.p0(i64 4, ptr %7) #9
  store i32 0, ptr %7, align 4, !tbaa !9
  call void @llvm.lifetime.start.p0(i64 4, ptr %8) #9
  store i32 0, ptr %8, align 4, !tbaa !9
  call void @llvm.lifetime.start.p0(i64 16, ptr %9) #9
  %25 = call <2 x i64> @_mm_setzero_si128()
  store <2 x i64> %25, ptr %9, align 16, !tbaa !11
  store i32 0, ptr %5, align 4, !tbaa !9
  br label %26

26:                                               ; preds = %156, %2
  %27 = load i32, ptr %5, align 4, !tbaa !9
  %28 = icmp slt i32 %27, 256
  br i1 %28, label %29, label %159

29:                                               ; preds = %26
  call void @llvm.lifetime.start.p0(i64 16, ptr %10) #9
  %30 = load ptr, ptr %3, align 8, !tbaa !7
  %31 = load i32, ptr %5, align 4, !tbaa !9
  %32 = sext i32 %31 to i64
  %33 = getelementptr inbounds i32, ptr %30, i64 %32
  %34 = getelementptr inbounds i32, ptr %33, i64 0
  %35 = call <2 x i64> @_mm_loadu_si128(ptr noundef %34)
  store <2 x i64> %35, ptr %10, align 16, !tbaa !11
  call void @llvm.lifetime.start.p0(i64 16, ptr %11) #9
  %36 = load ptr, ptr %4, align 8, !tbaa !7
  %37 = load i32, ptr %5, align 4, !tbaa !9
  %38 = sext i32 %37 to i64
  %39 = getelementptr inbounds i32, ptr %36, i64 %38
  %40 = getelementptr inbounds i32, ptr %39, i64 0
  %41 = call <2 x i64> @_mm_loadu_si128(ptr noundef %40)
  store <2 x i64> %41, ptr %11, align 16, !tbaa !11
  call void @llvm.lifetime.start.p0(i64 16, ptr %12) #9
  %42 = load ptr, ptr %3, align 8, !tbaa !7
  %43 = load i32, ptr %5, align 4, !tbaa !9
  %44 = sext i32 %43 to i64
  %45 = getelementptr inbounds i32, ptr %42, i64 %44
  %46 = getelementptr inbounds i32, ptr %45, i64 4
  %47 = call <2 x i64> @_mm_loadu_si128(ptr noundef %46)
  store <2 x i64> %47, ptr %12, align 16, !tbaa !11
  call void @llvm.lifetime.start.p0(i64 16, ptr %13) #9
  %48 = load ptr, ptr %4, align 8, !tbaa !7
  %49 = load i32, ptr %5, align 4, !tbaa !9
  %50 = sext i32 %49 to i64
  %51 = getelementptr inbounds i32, ptr %48, i64 %50
  %52 = getelementptr inbounds i32, ptr %51, i64 4
  %53 = call <2 x i64> @_mm_loadu_si128(ptr noundef %52)
  store <2 x i64> %53, ptr %13, align 16, !tbaa !11
  call void @llvm.lifetime.start.p0(i64 16, ptr %14) #9
  %54 = load ptr, ptr %3, align 8, !tbaa !7
  %55 = load i32, ptr %5, align 4, !tbaa !9
  %56 = sext i32 %55 to i64
  %57 = getelementptr inbounds i32, ptr %54, i64 %56
  %58 = getelementptr inbounds i32, ptr %57, i64 8
  %59 = call <2 x i64> @_mm_loadu_si128(ptr noundef %58)
  store <2 x i64> %59, ptr %14, align 16, !tbaa !11
  call void @llvm.lifetime.start.p0(i64 16, ptr %15) #9
  %60 = load ptr, ptr %4, align 8, !tbaa !7
  %61 = load i32, ptr %5, align 4, !tbaa !9
  %62 = sext i32 %61 to i64
  %63 = getelementptr inbounds i32, ptr %60, i64 %62
  %64 = getelementptr inbounds i32, ptr %63, i64 8
  %65 = call <2 x i64> @_mm_loadu_si128(ptr noundef %64)
  store <2 x i64> %65, ptr %15, align 16, !tbaa !11
  call void @llvm.lifetime.start.p0(i64 16, ptr %16) #9
  %66 = load ptr, ptr %3, align 8, !tbaa !7
  %67 = load i32, ptr %5, align 4, !tbaa !9
  %68 = sext i32 %67 to i64
  %69 = getelementptr inbounds i32, ptr %66, i64 %68
  %70 = getelementptr inbounds i32, ptr %69, i64 12
  %71 = call <2 x i64> @_mm_loadu_si128(ptr noundef %70)
  store <2 x i64> %71, ptr %16, align 16, !tbaa !11
  call void @llvm.lifetime.start.p0(i64 16, ptr %17) #9
  %72 = load ptr, ptr %4, align 8, !tbaa !7
  %73 = load i32, ptr %5, align 4, !tbaa !9
  %74 = sext i32 %73 to i64
  %75 = getelementptr inbounds i32, ptr %72, i64 %74
  %76 = getelementptr inbounds i32, ptr %75, i64 12
  %77 = call <2 x i64> @_mm_loadu_si128(ptr noundef %76)
  store <2 x i64> %77, ptr %17, align 16, !tbaa !11
  call void @llvm.lifetime.start.p0(i64 16, ptr %18) #9
  %78 = load <2 x i64>, ptr %10, align 16, !tbaa !11
  %79 = load <2 x i64>, ptr %12, align 16, !tbaa !11
  %80 = call <2 x i64> @_mm_packs_epi32(<2 x i64> noundef %78, <2 x i64> noundef %79)
  %81 = load <2 x i64>, ptr %14, align 16, !tbaa !11
  %82 = load <2 x i64>, ptr %16, align 16, !tbaa !11
  %83 = call <2 x i64> @_mm_packs_epi32(<2 x i64> noundef %81, <2 x i64> noundef %82)
  %84 = call <2 x i64> @_mm_packs_epi16(<2 x i64> noundef %80, <2 x i64> noundef %83)
  store <2 x i64> %84, ptr %18, align 16, !tbaa !11
  call void @llvm.lifetime.start.p0(i64 16, ptr %19) #9
  %85 = load <2 x i64>, ptr %11, align 16, !tbaa !11
  %86 = load <2 x i64>, ptr %13, align 16, !tbaa !11
  %87 = call <2 x i64> @_mm_packs_epi32(<2 x i64> noundef %85, <2 x i64> noundef %86)
  %88 = load <2 x i64>, ptr %15, align 16, !tbaa !11
  %89 = load <2 x i64>, ptr %17, align 16, !tbaa !11
  %90 = call <2 x i64> @_mm_packs_epi32(<2 x i64> noundef %88, <2 x i64> noundef %89)
  %91 = call <2 x i64> @_mm_packs_epi16(<2 x i64> noundef %87, <2 x i64> noundef %90)
  store <2 x i64> %91, ptr %19, align 16, !tbaa !11
  call void @llvm.lifetime.start.p0(i64 4, ptr %20) #9
  %92 = load <2 x i64>, ptr %18, align 16, !tbaa !11
  %93 = load <2 x i64>, ptr %9, align 16, !tbaa !11
  %94 = call <2 x i64> @_mm_cmpgt_epi8(<2 x i64> noundef %92, <2 x i64> noundef %93)
  %95 = call i32 @_mm_movemask_epi8(<2 x i64> noundef %94)
  store i32 %95, ptr %20, align 4, !tbaa !9
  call void @llvm.lifetime.start.p0(i64 4, ptr %21) #9
  %96 = load <2 x i64>, ptr %19, align 16, !tbaa !11
  %97 = load <2 x i64>, ptr %9, align 16, !tbaa !11
  %98 = call <2 x i64> @_mm_cmpgt_epi8(<2 x i64> noundef %96, <2 x i64> noundef %97)
  %99 = call i32 @_mm_movemask_epi8(<2 x i64> noundef %98)
  %100 = load i32, ptr %20, align 4, !tbaa !9
  %101 = or i32 %99, %100
  store i32 %101, ptr %21, align 4, !tbaa !9
  br label %102

102:                                              ; preds = %128, %29
  %103 = load i32, ptr %21, align 4, !tbaa !9
  %104 = icmp ne i32 %103, 0
  br i1 %104, label %105, label %155

105:                                              ; preds = %102
  call void @llvm.lifetime.start.p0(i64 4, ptr %22) #9
  %106 = load i32, ptr %21, align 4, !tbaa !9
  %107 = call i32 @BitsCtz(i32 noundef %106)
  store i32 %107, ptr %22, align 4, !tbaa !9
  call void @llvm.lifetime.start.p0(i64 4, ptr %23) #9
  %108 = load i32, ptr %20, align 4, !tbaa !9
  %109 = load i32, ptr %22, align 4, !tbaa !9
  %110 = ashr i32 %108, %109
  %111 = and i32 %110, 1
  %112 = icmp ne i32 %111, 0
  br i1 %112, label %113, label %128

113:                                              ; preds = %105
  call void @llvm.lifetime.start.p0(i64 4, ptr %24) #9
  %114 = load ptr, ptr %3, align 8, !tbaa !7
  %115 = load i32, ptr %5, align 4, !tbaa !9
  %116 = load i32, ptr %22, align 4, !tbaa !9
  %117 = add nsw i32 %115, %116
  %118 = sext i32 %117 to i64
  %119 = getelementptr inbounds i32, ptr %114, i64 %118
  %120 = load i32, ptr %119, align 4, !tbaa !9
  store i32 %120, ptr %24, align 4, !tbaa !9
  %121 = load i32, ptr %24, align 4, !tbaa !9
  %122 = load i32, ptr %8, align 4, !tbaa !9
  %123 = add i32 %122, %121
  store i32 %123, ptr %8, align 4, !tbaa !9
  %124 = load i32, ptr %24, align 4, !tbaa !9
  %125 = call i64 @VP8LFastSLog2(i32 noundef %124)
  %126 = load i64, ptr %6, align 8, !tbaa !29
  %127 = add i64 %126, %125
  store i64 %127, ptr %6, align 8, !tbaa !29
  call void @llvm.lifetime.end.p0(i64 4, ptr %24) #9
  br label %128

128:                                              ; preds = %113, %105
  %129 = load ptr, ptr %3, align 8, !tbaa !7
  %130 = load i32, ptr %5, align 4, !tbaa !9
  %131 = load i32, ptr %22, align 4, !tbaa !9
  %132 = add nsw i32 %130, %131
  %133 = sext i32 %132 to i64
  %134 = getelementptr inbounds i32, ptr %129, i64 %133
  %135 = load i32, ptr %134, align 4, !tbaa !9
  %136 = load ptr, ptr %4, align 8, !tbaa !7
  %137 = load i32, ptr %5, align 4, !tbaa !9
  %138 = load i32, ptr %22, align 4, !tbaa !9
  %139 = add nsw i32 %137, %138
  %140 = sext i32 %139 to i64
  %141 = getelementptr inbounds i32, ptr %136, i64 %140
  %142 = load i32, ptr %141, align 4, !tbaa !9
  %143 = add i32 %135, %142
  store i32 %143, ptr %23, align 4, !tbaa !9
  %144 = load i32, ptr %23, align 4, !tbaa !9
  %145 = load i32, ptr %7, align 4, !tbaa !9
  %146 = add i32 %145, %144
  store i32 %146, ptr %7, align 4, !tbaa !9
  %147 = load i32, ptr %23, align 4, !tbaa !9
  %148 = call i64 @VP8LFastSLog2(i32 noundef %147)
  %149 = load i64, ptr %6, align 8, !tbaa !29
  %150 = add i64 %149, %148
  store i64 %150, ptr %6, align 8, !tbaa !29
  %151 = load i32, ptr %21, align 4, !tbaa !9
  %152 = sub nsw i32 %151, 1
  %153 = load i32, ptr %21, align 4, !tbaa !9
  %154 = and i32 %153, %152
  store i32 %154, ptr %21, align 4, !tbaa !9
  call void @llvm.lifetime.end.p0(i64 4, ptr %23) #9
  call void @llvm.lifetime.end.p0(i64 4, ptr %22) #9
  br label %102, !llvm.loop !31

155:                                              ; preds = %102
  call void @llvm.lifetime.end.p0(i64 4, ptr %21) #9
  call void @llvm.lifetime.end.p0(i64 4, ptr %20) #9
  call void @llvm.lifetime.end.p0(i64 16, ptr %19) #9
  call void @llvm.lifetime.end.p0(i64 16, ptr %18) #9
  call void @llvm.lifetime.end.p0(i64 16, ptr %17) #9
  call void @llvm.lifetime.end.p0(i64 16, ptr %16) #9
  call void @llvm.lifetime.end.p0(i64 16, ptr %15) #9
  call void @llvm.lifetime.end.p0(i64 16, ptr %14) #9
  call void @llvm.lifetime.end.p0(i64 16, ptr %13) #9
  call void @llvm.lifetime.end.p0(i64 16, ptr %12) #9
  call void @llvm.lifetime.end.p0(i64 16, ptr %11) #9
  call void @llvm.lifetime.end.p0(i64 16, ptr %10) #9
  br label %156

156:                                              ; preds = %155
  %157 = load i32, ptr %5, align 4, !tbaa !9
  %158 = add nsw i32 %157, 16
  store i32 %158, ptr %5, align 4, !tbaa !9
  br label %26, !llvm.loop !32

159:                                              ; preds = %26
  %160 = load i32, ptr %7, align 4, !tbaa !9
  %161 = call i64 @VP8LFastSLog2(i32 noundef %160)
  %162 = load i32, ptr %8, align 4, !tbaa !9
  %163 = call i64 @VP8LFastSLog2(i32 noundef %162)
  %164 = add i64 %161, %163
  %165 = load i64, ptr %6, align 8, !tbaa !29
  %166 = sub i64 %164, %165
  store i64 %166, ptr %6, align 8, !tbaa !29
  %167 = load i64, ptr %6, align 8, !tbaa !29
  call void @llvm.lifetime.end.p0(i64 16, ptr %9) #9
  call void @llvm.lifetime.end.p0(i64 4, ptr %8) #9
  call void @llvm.lifetime.end.p0(i64 4, ptr %7) #9
  call void @llvm.lifetime.end.p0(i64 8, ptr %6) #9
  call void @llvm.lifetime.end.p0(i64 4, ptr %5) #9
  ret i64 %167
}