; Function Attrs: nounwind uwtable
define internal i64 @CombinedShannonEntropy_SSE2(ptr noundef readonly captures(none) %0, ptr noundef readonly captures(none) %1) #1 {
  br label %3

3:                                                ; preds = %2, %._crit_edge
  %indvars.iv = phi i64 [ 0, %2 ], [ %indvars.iv.next, %._crit_edge ]
  %.05777 = phi i64 [ 0, %2 ], [ %.1.lcssa, %._crit_edge ]
  %.05876 = phi i32 [ 0, %2 ], [ %.159.lcssa, %._crit_edge ]
  %.06175 = phi i32 [ 0, %2 ], [ %.162.lcssa, %._crit_edge ]
  %4 = getelementptr inbounds nuw i32, ptr %0, i64 %indvars.iv
  %5 = load <4 x i32>, ptr %4, align 1, !tbaa !7
  %6 = getelementptr inbounds nuw i32, ptr %1, i64 %indvars.iv
  %7 = load <4 x i32>, ptr %6, align 1, !tbaa !7
  %8 = getelementptr inbounds nuw i8, ptr %4, i64 16
  %9 = load <4 x i32>, ptr %8, align 1, !tbaa !7
  %10 = getelementptr inbounds nuw i8, ptr %6, i64 16
  %11 = load <4 x i32>, ptr %10, align 1, !tbaa !7
  %12 = getelementptr inbounds nuw i8, ptr %4, i64 32
  %13 = load <4 x i32>, ptr %12, align 1, !tbaa !7
  %14 = getelementptr inbounds nuw i8, ptr %6, i64 32
  %15 = load <4 x i32>, ptr %14, align 1, !tbaa !7
  %16 = getelementptr inbounds nuw i8, ptr %4, i64 48
  %17 = load <4 x i32>, ptr %16, align 1, !tbaa !7
  %18 = getelementptr inbounds nuw i8, ptr %6, i64 48
  %19 = load <4 x i32>, ptr %18, align 1, !tbaa !7
  %20 = tail call <8 x i16> @llvm.x86.sse2.packssdw.128(<4 x i32> %5, <4 x i32> %9)
  %21 = tail call <8 x i16> @llvm.x86.sse2.packssdw.128(<4 x i32> %13, <4 x i32> %17)
  %22 = tail call <16 x i8> @llvm.x86.sse2.packsswb.128(<8 x i16> %20, <8 x i16> %21)
  %23 = tail call <8 x i16> @llvm.x86.sse2.packssdw.128(<4 x i32> %7, <4 x i32> %11)
  %24 = tail call <8 x i16> @llvm.x86.sse2.packssdw.128(<4 x i32> %15, <4 x i32> %19)
  %25 = tail call <16 x i8> @llvm.x86.sse2.packsswb.128(<8 x i16> %23, <8 x i16> %24)
  %26 = icmp sgt <16 x i8> %22, zeroinitializer
  %27 = bitcast <16 x i1> %26 to i16
  %28 = zext i16 %27 to i32
  %29 = icmp sgt <16 x i8> %25, zeroinitializer
  %30 = or <16 x i1> %26, %29
  %31 = bitcast <16 x i1> %30 to i16
  %.not68 = icmp eq i16 %31, 0
  br i1 %.not68, label %._crit_edge, label %.lr.ph.preheader

.lr.ph.preheader:                                 ; preds = %3
  %32 = zext i16 %31 to i32
  br label %.lr.ph

.lr.ph:                                           ; preds = %.lr.ph.preheader, %VP8LFastSLog2.exit65
  %.172 = phi i64 [ %65, %VP8LFastSLog2.exit65 ], [ %.05777, %.lr.ph.preheader ]
  %.15971 = phi i32 [ %55, %VP8LFastSLog2.exit65 ], [ %.05876, %.lr.ph.preheader ]
  %.06070 = phi i32 [ %67, %VP8LFastSLog2.exit65 ], [ %32, %.lr.ph.preheader ]
  %.16269 = phi i32 [ %.263, %VP8LFastSLog2.exit65 ], [ %.06175, %.lr.ph.preheader ]
  %33 = tail call range(i32 0, 32) i32 @llvm.cttz.i32(i32 range(i32 1, 0) %.06070, i1 true)
  %34 = shl nuw nsw i32 1, %33
  %35 = and i32 %34, %28
  %.not64 = icmp eq i32 %35, 0
  %.pre = zext nneg i32 %33 to i64
  %.pre81 = add nuw nsw i64 %indvars.iv, %.pre
  br i1 %.not64, label %.lr.ph._crit_edge, label %36

36:                                               ; preds = %.lr.ph
  %37 = getelementptr inbounds nuw i32, ptr %0, i64 %.pre81
  %38 = load i32, ptr %37, align 4, !tbaa !17
  %39 = add i32 %38, %.16269
  %40 = icmp ult i32 %38, 256
  br i1 %40, label %41, label %45

41:                                               ; preds = %36
  %42 = zext nneg i32 %38 to i64
  %43 = getelementptr inbounds nuw [256 x i64], ptr @kSLog2Table, i64 0, i64 %42
  %44 = load i64, ptr %43, align 8, !tbaa !27
  br label %VP8LFastSLog2.exit

45:                                               ; preds = %36
  %46 = load ptr, ptr @VP8LFastSLog2Slow, align 8, !tbaa !3
  %47 = tail call i64 %46(i32 noundef %38) #8
  br label %VP8LFastSLog2.exit

VP8LFastSLog2.exit:                               ; preds = %41, %45
  %48 = phi i64 [ %44, %41 ], [ %47, %45 ]
  %49 = add i64 %48, %.172
  br label %.lr.ph._crit_edge

.lr.ph._crit_edge:                                ; preds = %.lr.ph, %VP8LFastSLog2.exit
  %.263 = phi i32 [ %39, %VP8LFastSLog2.exit ], [ %.16269, %.lr.ph ]
  %.2 = phi i64 [ %49, %VP8LFastSLog2.exit ], [ %.172, %.lr.ph ]
  %50 = getelementptr inbounds nuw i32, ptr %0, i64 %.pre81
  %51 = load i32, ptr %50, align 4, !tbaa !17
  %52 = getelementptr inbounds nuw i32, ptr %1, i64 %.pre81
  %53 = load i32, ptr %52, align 4, !tbaa !17
  %54 = add i32 %53, %51
  %55 = add i32 %54, %.15971
  %56 = icmp ult i32 %54, 256
  br i1 %56, label %57, label %61

57:                                               ; preds = %.lr.ph._crit_edge
  %58 = zext nneg i32 %54 to i64
  %59 = getelementptr inbounds nuw [256 x i64], ptr @kSLog2Table, i64 0, i64 %58
  %60 = load i64, ptr %59, align 8, !tbaa !27
  br label %VP8LFastSLog2.exit65

61:                                               ; preds = %.lr.ph._crit_edge
  %62 = load ptr, ptr @VP8LFastSLog2Slow, align 8, !tbaa !3
  %63 = tail call i64 %62(i32 noundef %54) #8
  br label %VP8LFastSLog2.exit65

VP8LFastSLog2.exit65:                             ; preds = %57, %61
  %64 = phi i64 [ %60, %57 ], [ %63, %61 ]
  %65 = add i64 %64, %.2
  %66 = add nsw i32 %.06070, -1
  %67 = and i32 %66, %.06070
  %.not = icmp eq i32 %67, 0
  br i1 %.not, label %._crit_edge, label %.lr.ph, !llvm.loop !29

._crit_edge:                                      ; preds = %VP8LFastSLog2.exit65, %3
  %.162.lcssa = phi i32 [ %.06175, %3 ], [ %.263, %VP8LFastSLog2.exit65 ]
  %.159.lcssa = phi i32 [ %.05876, %3 ], [ %55, %VP8LFastSLog2.exit65 ]
  %.1.lcssa = phi i64 [ %.05777, %3 ], [ %65, %VP8LFastSLog2.exit65 ]
  %indvars.iv.next = add nuw nsw i64 %indvars.iv, 16
  %68 = icmp samesign ult i64 %indvars.iv, 240
  br i1 %68, label %3, label %69, !llvm.loop !30

69:                                               ; preds = %._crit_edge
  %70 = icmp ult i32 %.159.lcssa, 256
  br i1 %70, label %71, label %75

71:                                               ; preds = %69
  %72 = zext nneg i32 %.159.lcssa to i64
  %73 = getelementptr inbounds nuw [256 x i64], ptr @kSLog2Table, i64 0, i64 %72
  %74 = load i64, ptr %73, align 8, !tbaa !27
  br label %VP8LFastSLog2.exit66

75:                                               ; preds = %69
  %76 = load ptr, ptr @VP8LFastSLog2Slow, align 8, !tbaa !3
  %77 = tail call i64 %76(i32 noundef %.159.lcssa) #8
  br label %VP8LFastSLog2.exit66

VP8LFastSLog2.exit66:                             ; preds = %71, %75
  %78 = phi i64 [ %74, %71 ], [ %77, %75 ]
  %79 = icmp ult i32 %.162.lcssa, 256
  br i1 %79, label %80, label %84

80:                                               ; preds = %VP8LFastSLog2.exit66
  %81 = zext nneg i32 %.162.lcssa to i64
  %82 = getelementptr inbounds nuw [256 x i64], ptr @kSLog2Table, i64 0, i64 %81
  %83 = load i64, ptr %82, align 8, !tbaa !27
  br label %VP8LFastSLog2.exit67

84:                                               ; preds = %VP8LFastSLog2.exit66
  %85 = load ptr, ptr @VP8LFastSLog2Slow, align 8, !tbaa !3
  %86 = tail call i64 %85(i32 noundef %.162.lcssa) #8
  br label %VP8LFastSLog2.exit67

VP8LFastSLog2.exit67:                             ; preds = %80, %84
  %87 = phi i64 [ %83, %80 ], [ %86, %84 ]
  %88 = sub i64 %78, %.1.lcssa
  %89 = add i64 %88, %87
  ret i64 %89
}